(dp1
S'failed'
p2
(lp3
S'10'
p4
aS'11'
p5
aS'12'
p6
aS'8'
aS'9'
asS'source_names'
p7
(lp8
S'.'
aS'tests\\test_neuralnetworks.py'
p9
aS'tests\\test_neuralnetworks.py:TestNeuralNetwork.test_doStuffReturnsDoneWhenCalled'
p10
aS'tests\\test_neuralnetworks.py:nn.tests.test_neuralnetworks.TestNeuralNetwork'
p11
aS'tests\\test_neuralnetworks.py:TestNeuralNetwork.test_createNetworkCalled_ReturnsProperDimensions'
p12
aS'tests'
p13
aS'tests\\test_neuralnetworks.py:TestNeuralNetwork.test_createNetworkCalled_ReturnsNetworkWithProperWeightsHeightDimensions'
p14
aS'tests\\test_neuralnetworks.py:TestNeuralNetwork.test_createNetworkCalled_ReturnsNetworkWithProperAlphaDimensions'
p15
aS'tests\\test_neuralnetworks.py:TestNeuralNetwork.test_createNetworkCalled_ReturnsNetworkWithProperBetaDimensions'
p16
asS'ids'
p17
(dp18
I1
(S'c:\\Users\\Jared.Melton\\Desktop\\nn\\tests\\test_neuralnetworks.py'
S'nn.tests.test_neuralnetworks'
S'TestNeuralNetwork.test_doStuffReturnsDoneWhenCalled'
tp19
sI2
(S'c:\\Users\\Jared.Melton\\Desktop\\nn\\tests\\test_neuralnetworks.py'
S'nn.tests.test_neuralnetworks'
S'TestNeuralNetwork.test_doStuffReturnsNothingWhenPasse'
tp20
sI3
(S'c:\\Users\\Jared.Melton\\Desktop\\nn\\tests\\test_neuralnetworks.py'
S'nn.tests.test_neuralnetworks'
Ntp21
sI4
(S'c:\\Users\\Jared.Melton\\Desktop\\nn\\tests\\test_neuralnetworks.py'
S'nn.tests.test_neuralnetworks'
S'TestNeuralNetwork.test_createNetworkCalled_ReturnsProperDimensions'
tp22
sI5
NsI6
(S'c:\\Users\\Jared.Melton\\Desktop\\nn\\tests\\test_neuralnetworks.py'
S'nn.tests.test_neuralnetworks'
S'TestNeuralNetwork.test_createNetworkCalled_ReturnsNetworkWithProperDepth'
tp23
sI7
(S'c:\\Users\\Jared.Melton\\Desktop\\nn\\tests\\test_neuralnetworks.py'
S'nn.tests.test_neuralnetworks'
S'TestNeuralNetwork.test_createNetworkCalled_ReturnsTupleWithCorrectDimensions'
tp24
sI8
(S'c:\\Users\\Jared.Melton\\Desktop\\nn\\tests\\test_neuralnetworks.py'
S'nn.tests.test_neuralnetworks'
S'TestNeuralNetwork.test_createNetworkCalled_ReturnsNetworkWithProperAlphaDimensions'
tp25
sI9
(S'c:\\Users\\Jared.Melton\\Desktop\\nn\\tests\\test_neuralnetworks.py'
S'nn.tests.test_neuralnetworks'
S'TestNeuralNetwork.test_createNetworkCalled_ReturnsNetworkWithProperBetaDimensions'
tp26
sI10
(S'c:\\Users\\Jared.Melton\\Desktop\\nn\\tests\\test_neuralnetworks.py'
S'nn.tests.test_neuralnetworks'
S'TestNeuralNetwork.test_createNetworkCalled_ReturnsNetworkWithProperWeightsDimensions'
tp27
sI11
(S'c:\\Users\\Jared.Melton\\Desktop\\nn\\tests\\test_neuralnetworks.py'
S'nn.tests.test_neuralnetworks'
S'TestNeuralNetwork.test_createNetworkCalled_ReturnsNetworkWithProperWeightsHeightDimensions'
tp28
sI12
(S'c:\\Users\\Jared.Melton\\Desktop\\nn\\tests\\test_neuralnetworks.py'
S'nn.tests.test_neuralnetworks'
S'TestNeuralNetwork.test_createNetworkCalled_ReturnsNetworkWithProperWeightsWidthDimensions'
tp29
ss.